target datalayout = "e-m:e-p270:32:32-p271:32:32-p272:64:64-i64:64-i128:128-f80:128-n8:16:32:64-S128"
target triple = "x86_64-pc-linux-gnu"

%"class.gmx::ArrayRef" = type { %"struct.gmx::ArrayRefIter", %"struct.gmx::ArrayRefIter" }
%"struct.gmx::ArrayRefIter" = type { ptr }

; Function Attrs: mustprogress nounwind uwtable
define linkonce_odr void @_ZN3gmx12ArrayRefIterIKNSt7__cxx1112basic_stringIcSt11char_traitsIcESaIcEEEEC2EPS7_(ptr noundef nonnull align 8 dereferenceable(8) %0, ptr noundef %1) unnamed_addr #1 comdat align 2 {
  %3 = alloca ptr, align 8
  %4 = alloca ptr, align 8
  store ptr %0, ptr %3, align 8
  store ptr %1, ptr %4, align 8
  %5 = load ptr, ptr %3, align 8
  %6 = getelementptr inbounds %"struct.gmx::ArrayRefIter", ptr %5, i32 0, i32 0
  %7 = load ptr, ptr %4, align 8
  store ptr %7, ptr %6, align 8
  ret void
}

; Function Attrs: mustprogress nounwind uwtable
define linkonce_odr void @_ZN3gmx8ArrayRefIKNSt7__cxx1112basic_stringIcSt11char_traitsIcESaIcEEEEC2Ev(ptr noundef nonnull align 8 dereferenceable(16) %0) unnamed_addr #1 comdat align 2 {
  %2 = alloca ptr, align 8
  store ptr %0, ptr %2, align 8
  %3 = load ptr, ptr %2, align 8
  %4 = getelementptr inbounds %"class.gmx::ArrayRef", ptr %3, i32 0, i32 0
  call void @_ZN3gmx12ArrayRefIterIKNSt7__cxx1112basic_stringIcSt11char_traitsIcESaIcEEEEC2EPS7_(ptr noundef nonnull align 8 dereferenceable(8) %4, ptr noundef null) #8
  %5 = getelementptr inbounds %"class.gmx::ArrayRef", ptr %3, i32 0, i32 1
  call void @_ZN3gmx12ArrayRefIterIKNSt7__cxx1112basic_stringIcSt11char_traitsIcESaIcEEEEC2EPS7_(ptr noundef nonnull align 8 dereferenceable(8) %5, ptr noundef null) #8
  ret void
}

; Function Attrs: mustprogress uwtable
define { ptr, ptr } @_Z18opt2fnsIfOptionSetB5cxx11PKciPK8t_filenm(ptr noundef %0, i32 noundef %1, ptr noundef %2) #0 {
  %4 = alloca %"class.gmx::ArrayRef", align 8
  %5 = alloca ptr, align 8
  %6 = alloca i32, align 4
  %7 = alloca ptr, align 8
  store ptr %0, ptr %5, align 8
  store i32 %1, ptr %6, align 4
  store ptr %2, ptr %7, align 8
  %8 = load ptr, ptr %5, align 8
  %9 = load i32, ptr %6, align 4
  %10 = load ptr, ptr %7, align 8
  %11 = call noundef zeroext i1 @_Z8opt2bSetPKciPK8t_filenm(ptr noundef %8, i32 noundef %9, ptr noundef %10)
  br i1 %11, label %12, label %21

12:                                               ; preds = %3
  %13 = load ptr, ptr %5, align 8
  %14 = load i32, ptr %6, align 4
  %15 = load ptr, ptr %7, align 8
  %16 = call { ptr, ptr } @_Z7opt2fnsB5cxx11PKciPK8t_filenm(ptr noundef %13, i32 noundef %14, ptr noundef %15)
  %17 = getelementptr inbounds { ptr, ptr }, ptr %4, i32 0, i32 0
  %18 = extractvalue { ptr, ptr } %16, 0
  store ptr %18, ptr %17, align 8
  %19 = getelementptr inbounds { ptr, ptr }, ptr %4, i32 0, i32 1
  %20 = extractvalue { ptr, ptr } %16, 1
  store ptr %20, ptr %19, align 8
  br label %22

21:                                               ; preds = %3
  call void @_ZN3gmx8ArrayRefIKNSt7__cxx1112basic_stringIcSt11char_traitsIcESaIcEEEEC2Ev(ptr noundef nonnull align 8 dereferenceable(16) %4)
  br label %22

22:                                               ; preds = %21, %12
  %23 = load { ptr, ptr }, ptr %4, align 8
  ret { ptr, ptr } %23
}