; Function Attrs: mustprogress uwtable
define { ptr, ptr } @_Z18opt2fnsIfOptionSetB5cxx11PKciPK8t_filenm(ptr nocapture noundef readonly %0, i32 noundef %1, ptr noundef %2) local_unnamed_addr #0 {
  %4 = tail call noundef zeroext i1 @_Z8opt2bSetPKciPK8t_filenm(ptr noundef %0, i32 noundef %1, ptr noundef %2)
  br i1 %4, label %5, label %9

5:                                                ; preds = %3
  %6 = tail call { ptr, ptr } @_Z7opt2fnsB5cxx11PKciPK8t_filenm(ptr noundef %0, i32 noundef %1, ptr noundef %2)
  %7 = extractvalue { ptr, ptr } %6, 0
  %8 = extractvalue { ptr, ptr } %6, 1
  br label %9

9:                                                ; preds = %3, %5
  %.sroa.0.0 = phi ptr [ %7, %5 ], [ null, %3 ]
  %.sroa.3.0 = phi ptr [ %8, %5 ], [ null, %3 ]
  %.fca.0.insert = insertvalue { ptr, ptr } poison, ptr %.sroa.0.0, 0
  %.fca.1.insert = insertvalue { ptr, ptr } %.fca.0.insert, ptr %.sroa.3.0, 1
  ret { ptr, ptr } %.fca.1.insert
}